target datalayout = "e-m:e-p270:32:32-p271:32:32-p272:64:64-i64:64-i128:128-f80:128-n8:16:32:64-S128"
target triple = "x86_64-pc-linux-gnu"

%struct.H5PB_t = type { i64, i64, i32, i32, i32, i32, i32, i32, ptr, ptr, i64, ptr, ptr, ptr, [2 x i32], [2 x i32], [2 x i32], [2 x i32], [2 x i32] }
%struct.H5F_shared_t = type { ptr, ptr, ptr, i8, i32, i32, %struct.H5F_mtab_t, ptr, i8, i8, i64, i32, i32, i64, i64, ptr, ptr, %struct.H5AC_cache_config_t, %struct.H5AC_cache_image_config_t, i8, i8, ptr, i64, i32, i8, i64, i64, double, i64, i64, i64, i32, i32, i32, i8, i32, ptr, ptr, ptr, ptr, i8, i8, i8, i64, ptr, ptr, i32, i64, i8, i32, i8, i64, i8, [13 x i32], [13 x i64], [13 x ptr], i8, i64, i64, [7 x i32], [7 x i32], %struct.H5F_blk_aggr_t, %struct.H5F_blk_aggr_t, i64, i64, %struct.H5F_meta_accum_t, i32, i32, [30 x ptr], %struct.H5F_object_flush_t, i8, ptr }
%struct.H5F_mtab_t = type { i32, i32, ptr }
%struct.H5AC_cache_config_t = type { i32, i8, i8, i8, [1025 x i8], i8, i8, i64, double, i64, i64, i64, i32, double, double, i8, i64, i32, double, double, i32, double, double, i8, i64, i32, i8, double, i64, i32 }
%struct.H5AC_cache_image_config_t = type { i32, i8, i8, i32 }
%struct.H5F_blk_aggr_t = type { i64, i64, i64, i64, i64 }
%struct.H5F_meta_accum_t = type { ptr, i64, i64, i64, i64, i64, i8 }
%struct.H5F_object_flush_t = type { ptr, ptr }

@H5PB_init_g = global i8 0, align 1
@H5_libterm_g = external global i8, align 1

; Function Attrs: nounwind uwtable
define i32 @H5PB_enabled(ptr noundef %0, i32 noundef %1, ptr noundef %2) #0 {
  %4 = alloca ptr, align 8
  %5 = alloca i32, align 4
  %6 = alloca ptr, align 8
  %7 = alloca ptr, align 8
  %8 = alloca i8, align 1
  %9 = alloca i32, align 4
  store ptr %0, ptr %4, align 8, !tbaa !16
  store i32 %1, ptr %5, align 4, !tbaa !12
  store ptr %2, ptr %6, align 8, !tbaa !81
  call void @llvm.lifetime.start.p0(i64 8, ptr %7) #6
  call void @llvm.lifetime.start.p0(i64 1, ptr %8) #6
  store i8 0, ptr %8, align 1, !tbaa !8
  call void @llvm.lifetime.start.p0(i64 4, ptr %9) #6
  store i32 0, ptr %9, align 4, !tbaa !12
  %10 = load i8, ptr @H5PB_init_g, align 1, !tbaa !8, !range !10, !noundef !11
  %11 = trunc i8 %10 to i1
  br i1 %11, label %16, label %12

12:                                               ; preds = %3
  %13 = load i8, ptr @H5_libterm_g, align 1, !tbaa !8, !range !10, !noundef !11
  %14 = trunc i8 %13 to i1
  %15 = xor i1 %14, true
  br label %16

16:                                               ; preds = %12, %3
  %17 = phi i1 [ false, %3 ], [ %15, %12 ]
  %18 = xor i1 %17, true
  %19 = xor i1 %18, true
  %20 = zext i1 %19 to i32
  %21 = sext i32 %20 to i64
  %22 = call i64 @llvm.expect.i64(i64 %21, i64 0)
  %23 = icmp ne i64 %22, 0
  br i1 %23, label %24, label %25

24:                                               ; preds = %16
  store i8 1, ptr @H5PB_init_g, align 1, !tbaa !8
  br label %25

25:                                               ; preds = %24, %16
  %26 = load i8, ptr @H5PB_init_g, align 1, !tbaa !8, !range !10, !noundef !11
  %27 = trunc i8 %26 to i1
  br i1 %27, label %32, label %28

28:                                               ; preds = %25
  %29 = load i8, ptr @H5_libterm_g, align 1, !tbaa !8, !range !10, !noundef !11
  %30 = trunc i8 %29 to i1
  %31 = xor i1 %30, true
  br label %32

32:                                               ; preds = %28, %25
  %33 = phi i1 [ true, %25 ], [ %31, %28 ]
  %34 = xor i1 %33, true
  %35 = xor i1 %34, true
  %36 = zext i1 %35 to i32
  %37 = sext i32 %36 to i64
  %38 = call i64 @llvm.expect.i64(i64 %37, i64 1)
  %39 = icmp ne i64 %38, 0
  br i1 %39, label %40, label %66

40:                                               ; preds = %32
  %41 = load ptr, ptr %4, align 8, !tbaa !16
  %42 = getelementptr inbounds nuw %struct.H5F_shared_t, ptr %41, i32 0, i32 15
  %43 = load ptr, ptr %42, align 8, !tbaa !54
  store ptr %43, ptr %7, align 8, !tbaa !3
  %44 = load ptr, ptr %7, align 8, !tbaa !3
  %45 = icmp eq ptr null, %44
  br i1 %45, label %52, label %46

46:                                               ; preds = %40
  %47 = load i8, ptr %8, align 1, !tbaa !8, !range !10, !noundef !11
  %48 = trunc i8 %47 to i1
  br i1 %48, label %49, label %63

49:                                               ; preds = %46
  %50 = load i32, ptr %5, align 4, !tbaa !12
  %51 = icmp eq i32 3, %50
  br i1 %51, label %52, label %63

52:                                               ; preds = %49, %40
  %53 = load ptr, ptr %7, align 8, !tbaa !3
  %54 = icmp ne ptr %53, null
  br i1 %54, label %55, label %61

55:                                               ; preds = %52
  %56 = load ptr, ptr %7, align 8, !tbaa !3
  %57 = getelementptr inbounds nuw %struct.H5PB_t, ptr %56, i32 0, i32 18
  %58 = getelementptr inbounds [2 x i32], ptr %57, i64 0, i64 1
  %59 = load i32, ptr %58, align 4, !tbaa !12
  %60 = add i32 %59, 1
  store i32 %60, ptr %58, align 4, !tbaa !12
  br label %61

61:                                               ; preds = %55, %52
  %62 = load ptr, ptr %6, align 8, !tbaa !81
  store i8 0, ptr %62, align 1, !tbaa !8
  br label %65

63:                                               ; preds = %49, %46
  %64 = load ptr, ptr %6, align 8, !tbaa !81
  store i8 1, ptr %64, align 1, !tbaa !8
  br label %65

65:                                               ; preds = %63, %61
  br label %66

66:                                               ; preds = %65, %32
  %67 = load i32, ptr %9, align 4, !tbaa !12
  call void @llvm.lifetime.end.p0(i64 4, ptr %9) #6
  call void @llvm.lifetime.end.p0(i64 1, ptr %8) #6
  call void @llvm.lifetime.end.p0(i64 8, ptr %7) #6
  ret i32 %67
}