; Function Attrs: mustprogress nofree norecurse nosync nounwind willreturn memory(readwrite, inaccessiblemem: none) uwtable
define noundef i32 @H5PB_enabled(ptr noundef readonly captures(none) %0, i32 noundef %1, ptr noundef writeonly captures(none) %2) local_unnamed_addr #1 {
  %4 = load i8, ptr @H5PB_init_g, align 1, !tbaa !3, !range !7, !noundef !8
  %5 = trunc nuw i8 %4 to i1
  %6 = load i8, ptr @H5_libterm_g, align 1, !range !7
  %7 = trunc nuw i8 %6 to i1
  %8 = select i1 %5, i1 true, i1 %7
  br i1 %8, label %9, label %.thread, !prof !9

.thread:                                          ; preds = %3
  store i8 1, ptr @H5PB_init_g, align 1, !tbaa !3
  br label %.sink.split

9:                                                ; preds = %3
  %10 = xor i1 %7, true
  %11 = select i1 %5, i1 true, i1 %10
  br i1 %11, label %.sink.split, label %15, !prof !10

.sink.split:                                      ; preds = %.thread, %9
  %12 = getelementptr inbounds nuw i8, ptr %0, i64 104
  %13 = load ptr, ptr %12, align 8, !tbaa !51
  %14 = icmp ne ptr %13, null
  %. = zext i1 %14 to i8
  store i8 %., ptr %2, align 1, !tbaa !3
  br label %15

15:                                               ; preds = %.sink.split, %9
  ret i32 0
}